target datalayout = "e-m:e-p270:32:32-p271:32:32-p272:64:64-i64:64-i128:128-f80:128-n8:16:32:64-S128"
target triple = "x86_64-pc-linux-gnu"

%struct.hwloc_topology = type { i32, i32, i32, ptr, ptr, i64, [20 x i32], [20 x i32], i64, i64, i32, ptr, i64, ptr, i64, [6 x %struct.hwloc_special_level_s], ptr, ptr, %struct.hwloc_binding_hooks, %struct.hwloc_topology_support, %struct.hwloc_infos_s, ptr, ptr, i32, ptr, ptr, i32, i32, ptr, i32, i32, ptr, i32, i32, i32, [5 x float], i32, ptr, ptr, i32, i32, ptr, i32, %struct.hwloc_numanode_attr_s, i32, i32, ptr, i64, i32, ptr, ptr, ptr }
%struct.hwloc_special_level_s = type { i32, ptr, ptr, ptr }
%struct.hwloc_binding_hooks = type { ptr, ptr, ptr, ptr, ptr, ptr, ptr, ptr, ptr, ptr, ptr, ptr, ptr, ptr, ptr, ptr, ptr, ptr, ptr, ptr, ptr, ptr, ptr, ptr }
%struct.hwloc_topology_support = type { ptr, ptr, ptr, ptr }
%struct.hwloc_infos_s = type { ptr, i32, i32 }
%struct.hwloc_numanode_attr_s = type { i64, i32, ptr }
%struct.hwloc_internal_distances_s = type { ptr, i32, i32, ptr, i32, ptr, ptr, i64, i32, ptr, ptr, ptr }

; Function Attrs: nounwind uwtable
define internal void @hwloc_internal_distances_free(ptr noundef %0) #0 {
  %2 = alloca ptr, align 8
  store ptr %0, ptr %2, align 8, !tbaa !46
  %3 = load ptr, ptr %2, align 8, !tbaa !46
  %4 = getelementptr inbounds nuw %struct.hwloc_internal_distances_s, ptr %3, i32 0, i32 0
  %5 = load ptr, ptr %4, align 8, !tbaa !53
  call void @free(ptr noundef %5) #15
  %6 = load ptr, ptr %2, align 8, !tbaa !46
  %7 = getelementptr inbounds nuw %struct.hwloc_internal_distances_s, ptr %6, i32 0, i32 3
  %8 = load ptr, ptr %7, align 8, !tbaa !54
  call void @free(ptr noundef %8) #15
  %9 = load ptr, ptr %2, align 8, !tbaa !46
  %10 = getelementptr inbounds nuw %struct.hwloc_internal_distances_s, ptr %9, i32 0, i32 5
  %11 = load ptr, ptr %10, align 8, !tbaa !55
  call void @free(ptr noundef %11) #15
  %12 = load ptr, ptr %2, align 8, !tbaa !46
  %13 = getelementptr inbounds nuw %struct.hwloc_internal_distances_s, ptr %12, i32 0, i32 9
  %14 = load ptr, ptr %13, align 8, !tbaa !56
  call void @free(ptr noundef %14) #15
  %15 = load ptr, ptr %2, align 8, !tbaa !46
  %16 = getelementptr inbounds nuw %struct.hwloc_internal_distances_s, ptr %15, i32 0, i32 6
  %17 = load ptr, ptr %16, align 8, !tbaa !57
  call void @free(ptr noundef %17) #15
  %18 = load ptr, ptr %2, align 8, !tbaa !46
  call void @free(ptr noundef %18) #15
  ret void
}

; Function Attrs: nounwind uwtable
define hidden void @hwloc_internal_distances_destroy(ptr noundef %0) #0 {
  %2 = alloca ptr, align 8
  %3 = alloca ptr, align 8
  %4 = alloca ptr, align 8
  store ptr %0, ptr %2, align 8, !tbaa !3
  call void @llvm.lifetime.start.p0(i64 8, ptr %3) #15
  call void @llvm.lifetime.start.p0(i64 8, ptr %4) #15
  %5 = load ptr, ptr %2, align 8, !tbaa !3
  %6 = getelementptr inbounds nuw %struct.hwloc_topology, ptr %5, i32 0, i32 24
  %7 = load ptr, ptr %6, align 8, !tbaa !33
  store ptr %7, ptr %4, align 8, !tbaa !46
  br label %8

8:                                                ; preds = %11, %1
  %9 = load ptr, ptr %4, align 8, !tbaa !46
  store ptr %9, ptr %3, align 8, !tbaa !46
  %10 = icmp ne ptr %9, null
  br i1 %10, label %11, label %16

11:                                               ; preds = %8
  %12 = load ptr, ptr %3, align 8, !tbaa !46
  %13 = getelementptr inbounds nuw %struct.hwloc_internal_distances_s, ptr %12, i32 0, i32 11
  %14 = load ptr, ptr %13, align 8, !tbaa !47
  store ptr %14, ptr %4, align 8, !tbaa !46
  %15 = load ptr, ptr %3, align 8, !tbaa !46
  call void @hwloc_internal_distances_free(ptr noundef %15)
  br label %8, !llvm.loop !51

16:                                               ; preds = %8
  %17 = load ptr, ptr %2, align 8, !tbaa !3
  %18 = getelementptr inbounds nuw %struct.hwloc_topology, ptr %17, i32 0, i32 25
  store ptr null, ptr %18, align 8, !tbaa !8
  %19 = load ptr, ptr %2, align 8, !tbaa !3
  %20 = getelementptr inbounds nuw %struct.hwloc_topology, ptr %19, i32 0, i32 24
  store ptr null, ptr %20, align 8, !tbaa !33
  call void @llvm.lifetime.end.p0(i64 8, ptr %4) #15
  call void @llvm.lifetime.end.p0(i64 8, ptr %3) #15
  ret void
}

; Function Attrs: nounwind uwtable
define i32 @hwloc_distances_remove(ptr noundef %0) #0 {
  %2 = alloca i32, align 4
  %3 = alloca ptr, align 8
  store ptr %0, ptr %3, align 8, !tbaa !3
  %4 = load ptr, ptr %3, align 8, !tbaa !3
  %5 = getelementptr inbounds nuw %struct.hwloc_topology, ptr %4, i32 0, i32 8
  %6 = load i64, ptr %5, align 8, !tbaa !67
  %7 = and i64 %6, 2
  %8 = icmp ne i64 %7, 0
  br i1 %8, label %11, label %9

9:                                                ; preds = %1
  %10 = call ptr @__errno_location() #17
  store i32 22, ptr %10, align 4, !tbaa !38
  store i32 -1, ptr %2, align 4
  br label %20

11:                                               ; preds = %1
  %12 = load ptr, ptr %3, align 8, !tbaa !3
  %13 = getelementptr inbounds nuw %struct.hwloc_topology, ptr %12, i32 0, i32 13
  %14 = load ptr, ptr %13, align 8, !tbaa !68
  %15 = icmp ne ptr %14, null
  br i1 %15, label %16, label %18

16:                                               ; preds = %11
  %17 = call ptr @__errno_location() #17
  store i32 1, ptr %17, align 4, !tbaa !38
  store i32 -1, ptr %2, align 4
  br label %20

18:                                               ; preds = %11
  %19 = load ptr, ptr %3, align 8, !tbaa !3
  call void @hwloc_internal_distances_destroy(ptr noundef %19)
  store i32 0, ptr %2, align 4
  br label %20

20:                                               ; preds = %18, %16, %9
  %21 = load i32, ptr %2, align 4
  ret i32 %21
}