; Function Attrs: nounwind uwtable
define range(i32 -1, 1) i32 @hwloc_distances_remove(ptr noundef captures(none) %0) local_unnamed_addr #1 {
  %2 = getelementptr inbounds nuw i8, ptr %0, i64 200
  %3 = load i64, ptr %2, align 8, !tbaa !63
  %4 = and i64 %3, 2
  %.not = icmp eq i64 %4, 0
  br i1 %.not, label %5, label %7

5:                                                ; preds = %1
  %6 = tail call ptr @__errno_location() #30
  store i32 22, ptr %6, align 4, !tbaa !3
  br label %26

7:                                                ; preds = %1
  %8 = getelementptr inbounds nuw i8, ptr %0, i64 240
  %9 = load ptr, ptr %8, align 8, !tbaa !64
  %.not3 = icmp eq ptr %9, null
  br i1 %.not3, label %12, label %10

10:                                               ; preds = %7
  %11 = tail call ptr @__errno_location() #30
  store i32 1, ptr %11, align 4, !tbaa !3
  br label %26

12:                                               ; preds = %7
  %13 = getelementptr inbounds nuw i8, ptr %0, i64 728
  %14 = load ptr, ptr %13, align 8, !tbaa !37
  %.not6.i = icmp eq ptr %14, null
  br i1 %.not6.i, label %hwloc_internal_distances_destroy.exit, label %.lr.ph.i

.lr.ph.i:                                         ; preds = %12, %.lr.ph.i
  %.07.i = phi ptr [ %16, %.lr.ph.i ], [ %14, %12 ]
  %15 = getelementptr inbounds nuw i8, ptr %.07.i, i64 80
  %16 = load ptr, ptr %15, align 8, !tbaa !38
  %17 = load ptr, ptr %.07.i, align 8, !tbaa !43
  tail call void @free(ptr noundef %17) #27
  %18 = getelementptr inbounds nuw i8, ptr %.07.i, i64 16
  %19 = load ptr, ptr %18, align 8, !tbaa !44
  tail call void @free(ptr noundef %19) #27
  %20 = getelementptr inbounds nuw i8, ptr %.07.i, i64 32
  %21 = load ptr, ptr %20, align 8, !tbaa !45
  tail call void @free(ptr noundef %21) #27
  %22 = getelementptr inbounds nuw i8, ptr %.07.i, i64 64
  %23 = load ptr, ptr %22, align 8, !tbaa !46
  tail call void @free(ptr noundef %23) #27
  %24 = getelementptr inbounds nuw i8, ptr %.07.i, i64 40
  %25 = load ptr, ptr %24, align 8, !tbaa !47
  tail call void @free(ptr noundef %25) #27
  tail call void @free(ptr noundef nonnull %.07.i) #27
  %.not.i = icmp eq ptr %16, null
  br i1 %.not.i, label %hwloc_internal_distances_destroy.exit, label %.lr.ph.i, !llvm.loop !48

hwloc_internal_distances_destroy.exit:            ; preds = %.lr.ph.i, %12
  tail call void @llvm.memset.p0.i64(ptr noundef nonnull align 8 dereferenceable(16) %13, i8 0, i64 16, i1 false)
  br label %26

26:                                               ; preds = %hwloc_internal_distances_destroy.exit, %10, %5
  %.0 = phi i32 [ -1, %10 ], [ 0, %hwloc_internal_distances_destroy.exit ], [ -1, %5 ]
  ret i32 %.0
}